(dp1
S'training'
p2
(lp3
F1
aF0.80833333333333335
aF0.79000000000000004
aF0.75
aF0.71499999999999997
aF0.70666666666666667
aF0.70333333333333337
aF0.69333333333333336
aF0.67333333333333334
aF0.65666666666666662
aF0.65833333333333333
aF0.64833333333333332
aF0.63166666666666671
aF0.62
aF0.6283333333333333
aF0.61833333333333329
aF0.625
aF0.61499999999999999
aF0.60999999999999999
aF0.60833333333333328
aF0.59499999999999997
aF0.58999999999999997
aF0.58333333333333337
aF0.58166666666666667
aF0.57833333333333337
aF0.57999999999999996
aF0.57333333333333336
aF0.56833333333333336
aF0.57166666666666666
aF0.56833333333333336
aF0.56666666666666665
aF0.55666666666666664
aF0.55166666666666664
aF0.54833333333333334
aF0.55166666666666664
aF0.54500000000000004
aF0.54166666666666663
aF0.54166666666666663
aF0.53666666666666663
aF0.53833333333333333
aF0.54333333333333333
aF0.54333333333333333
aF0.54166666666666663
aF0.53500000000000003
aF0.53333333333333333
aF0.52166666666666661
aF0.52000000000000002
aF0.52166666666666661
aF0.52500000000000002
aF0.52666666666666662
aF0.52000000000000002
aF0.51500000000000001
aF0.51500000000000001
aF0.51666666666666672
aF0.51333333333333331
aF0.51333333333333331
aF0.505
aF0.5
aF0.5033333333333333
aF0.50166666666666671
aF0.50166666666666671
aF0.50166666666666671
aF0.5033333333333333
aF0.50666666666666671
aF0.5
aF0.49666666666666665
aF0.47999999999999998
aF0.48333333333333334
aF0.48999999999999999
aF0.48499999999999999
aF0.49333333333333335
aF0.49166666666666664
aF0.49333333333333335
aF0.48833333333333334
aF0.49666666666666665
aF0.49666666666666665
aF0.49666666666666665
aF0.48666666666666669
aF0.48166666666666669
aF0.47999999999999998
aF0.46999999999999997
aF0.46999999999999997
aF0.46833333333333332
aF0.46333333333333332
aF0.46166666666666667
aF0.46666666666666667
aF0.46500000000000002
aF0.46666666666666667
aF0.45833333333333331
aF0.46166666666666667
aF0.45833333333333331
aF0.46500000000000002
aF0.46000000000000002
aF0.45000000000000001
aF0.45166666666666666
aF0.45333333333333331
aF0.45500000000000002
aF0.44666666666666666
aF0.44166666666666665
aF0.435
aF0.43833333333333335
aF0.43833333333333335
aF0.42999999999999999
aF0.42999999999999999
aF0.43666666666666665
aF0.42166666666666669
aF0.42499999999999999
aF0.42999999999999999
aF0.42999999999999999
aF0.42999999999999999
aF0.42333333333333334
aF0.41666666666666669
aF0.42333333333333334
aF0.42499999999999999
aF0.42333333333333334
aF0.42166666666666669
aF0.42333333333333334
aF0.42499999999999999
aF0.42333333333333334
aF0.41999999999999998
aF0.42166666666666669
aF0.42166666666666669
aF0.41999999999999998
aF0.41666666666666669
aF0.41499999999999998
aF0.42166666666666669
aF0.42499999999999999
aF0.41999999999999998
aF0.41666666666666669
aF0.41833333333333333
aF0.41833333333333333
aF0.41166666666666668
aF0.41499999999999998
aF0.41333333333333333
aF0.40999999999999998
aF0.40666666666666668
aF0.40333333333333332
aF0.40833333333333333
aF0.40833333333333333
aF0.40666666666666668
aF0.40999999999999998
aF0.40666666666666668
aF0.40333333333333332
aF0.40666666666666668
aF0.40833333333333333
aF0.40666666666666668
aF0.39833333333333332
aF0.40000000000000002
aF0.40166666666666667
aF0.40000000000000002
aF0.39833333333333332
aF0.39833333333333332
aF0.40000000000000002
aF0.39833333333333332
aF0.39833333333333332
aF0.39666666666666667
aF0.39666666666666667
aF0.39333333333333331
aF0.39000000000000001
aF0.39333333333333331
aF0.38666666666666666
aF0.38833333333333331
aF0.38666666666666666
aF0.39666666666666667
aF0.38833333333333331
aF0.38166666666666665
aF0.38666666666666666
aF0.38666666666666666
aF0.38666666666666666
aF0.38666666666666666
aF0.38833333333333331
aF0.38
aF0.38166666666666665
aF0.38166666666666665
aF0.38
aF0.38166666666666665
aF0.38
aF0.37833333333333335
aF0.37833333333333335
aF0.37666666666666665
aF0.38166666666666665
aF0.38166666666666665
aF0.38833333333333331
aF0.38333333333333336
aF0.38166666666666665
aF0.37833333333333335
aF0.38166666666666665
aF0.38
aF0.38500000000000001
aF0.37833333333333335
aF0.37666666666666665
aF0.37666666666666665
aF0.38
aF0.37666666666666665
aF0.37666666666666665
aF0.37
aF0.37
aF0.37333333333333335
aF0.37166666666666665
aF0.37166666666666665
aF0.37166666666666665
aF0.37166666666666665
aF0.37
aF0.36666666666666664
aF0.36833333333333335
aF0.37
aF0.36666666666666664
aF0.36499999999999999
aF0.36833333333333335
aF0.36833333333333335
aF0.36833333333333335
aF0.36833333333333335
aF0.37
aF0.36499999999999999
aF0.36333333333333334
aF0.36333333333333334
aF0.36166666666666669
aF0.36166666666666669
aF0.35833333333333334
aF0.35833333333333334
aF0.35499999999999998
aF0.35499999999999998
aF0.35499999999999998
aF0.35166666666666668
aF0.35166666666666668
aF0.35999999999999999
aF0.35833333333333334
aF0.35499999999999998
aF0.35499999999999998
aF0.35666666666666669
aF0.35333333333333333
aF0.34666666666666668
aF0.34833333333333333
aF0.34833333333333333
aF0.34333333333333332
aF0.34499999999999997
aF0.34833333333333333
aF0.34166666666666667
aF0.34833333333333333
aF0.34666666666666668
aF0.35166666666666668
aF0.34666666666666668
aF0.34666666666666668
aF0.35333333333333333
aF0.35166666666666668
aF0.34999999999999998
aF0.35499999999999998
aF0.35333333333333333
aF0.34666666666666668
aF0.34999999999999998
aF0.34833333333333333
aF0.35166666666666668
aF0.35166666666666668
aF0.35499999999999998
aF0.35166666666666668
aF0.34999999999999998
aF0.34333333333333332
aF0.34166666666666667
aF0.34333333333333332
aF0.34000000000000002
aF0.34333333333333332
aF0.34666666666666668
aF0.35166666666666668
aF0.35666666666666669
aF0.34999999999999998
aF0.35499999999999998
aF0.34666666666666668
aF0.34499999999999997
aF0.34499999999999997
aF0.33333333333333331
aF0.33666666666666667
aF0.33000000000000002
aF0.32833333333333331
aF0.32666666666666666
aF0.33000000000000002
aF0.33666666666666667
aF0.33833333333333332
aF0.34000000000000002
aF0.33666666666666667
aF0.34000000000000002
aF0.33166666666666667
aF0.33166666666666667
aF0.32666666666666666
aF0.32833333333333331
aF0.33333333333333331
aF0.33166666666666667
aF0.32833333333333331
aF0.33166666666666667
aF0.33166666666666667
aF0.33000000000000002
aF0.33000000000000002
aF0.33666666666666667
aF0.33500000000000002
aF0.33500000000000002
aF0.33333333333333331
aF0.33000000000000002
aF0.33166666666666667
aF0.32666666666666666
aF0.32500000000000001
aF0.32833333333333331
aF0.31666666666666665
aF0.31833333333333336
aF0.31833333333333336
aF0.32166666666666666
aF0.32166666666666666
aF0.32000000000000001
aF0.32000000000000001
aF0.32333333333333331
aF0.32333333333333331
aF0.33000000000000002
aF0.33000000000000002
aF0.32666666666666666
aF0.33000000000000002
aF0.32833333333333331
aF0.32833333333333331
aF0.33333333333333331
aF0.32333333333333331
aF0.32666666666666666
aF0.32666666666666666
aF0.33000000000000002
aF0.33000000000000002
aF0.32666666666666666
aF0.32666666666666666
aF0.32166666666666666
aF0.32166666666666666
aF0.31666666666666665
aF0.31666666666666665
aF0.31833333333333336
aF0.32166666666666666
aF0.32333333333333331
aF0.32500000000000001
aF0.31833333333333336
aF0.31666666666666665
aF0.32166666666666666
aF0.32500000000000001
aF0.32333333333333331
aF0.32166666666666666
aF0.31833333333333336
aF0.31833333333333336
aF0.315
aF0.31333333333333335
aF0.315
aF0.315
aF0.31166666666666665
aF0.31333333333333335
aF0.31166666666666665
aF0.31333333333333335
aF0.31333333333333335
aF0.31333333333333335
aF0.31666666666666665
aF0.31666666666666665
aF0.32000000000000001
aF0.32166666666666666
aF0.32500000000000001
aF0.32166666666666666
aF0.32333333333333331
aF0.32333333333333331
aF0.31666666666666665
aF0.32000000000000001
aF0.32500000000000001
aF0.32833333333333331
aF0.33000000000000002
aF0.33166666666666667
aF0.33000000000000002
aF0.33166666666666667
aF0.33166666666666667
aF0.33166666666666667
aF0.32666666666666666
aF0.32666666666666666
aF0.32833333333333331
aF0.33166666666666667
aF0.32833333333333331
aF0.33000000000000002
aF0.32666666666666666
aF0.33000000000000002
aF0.33166666666666667
aF0.33166666666666667
aF0.33000000000000002
aF0.32666666666666666
aF0.33333333333333331
aF0.32666666666666666
aF0.32666666666666666
aF0.32333333333333331
aF0.32166666666666666
aF0.32000000000000001
aF0.31333333333333335
aF0.31166666666666665
aF0.30666666666666664
aF0.30333333333333334
aF0.30499999999999999
aF0.30833333333333335
aF0.31333333333333335
aF0.31666666666666665
aF0.315
aF0.31333333333333335
aF0.31
aF0.31
aF0.30833333333333335
aF0.30666666666666664
aF0.31333333333333335
aF0.315
aF0.31333333333333335
aF0.31166666666666665
aF0.31333333333333335
aF0.31666666666666665
aF0.315
aF0.315
aF0.30666666666666664
aF0.30666666666666664
aF0.30666666666666664
aF0.30333333333333334
aF0.30166666666666669
aF0.29999999999999999
aF0.29833333333333334
aF0.29499999999999998
aF0.29333333333333333
aF0.29833333333333334
aF0.30166666666666669
aF0.31166666666666665
aF0.30833333333333335
aF0.30166666666666669
aF0.29166666666666669
aF0.28999999999999998
aF0.28666666666666668
aF0.28999999999999998
aF0.29166666666666669
aF0.29166666666666669
aF0.28499999999999998
aF0.28333333333333333
aF0.28499999999999998
aF0.28499999999999998
aF0.28499999999999998
aF0.28000000000000003
aF0.28333333333333333
aF0.28666666666666668
aF0.29166666666666669
aF0.29666666666666669
aF0.29833333333333334
aF0.28833333333333333
aF0.28666666666666668
aF0.28499999999999998
aF0.28166666666666668
aF0.28333333333333333
aF0.28000000000000003
aF0.28166666666666668
aF0.28833333333333333
aF0.29166666666666669
aF0.28999999999999998
aF0.29166666666666669
aF0.29333333333333333
aF0.29166666666666669
aF0.29333333333333333
aF0.29499999999999998
aF0.29166666666666669
aF0.28499999999999998
aF0.28499999999999998
aF0.28333333333333333
aF0.28666666666666668
aF0.28666666666666668
aF0.28499999999999998
aF0.27833333333333332
aF0.28166666666666668
aF0.28999999999999998
aF0.28999999999999998
aF0.28999999999999998
aF0.28999999999999998
aF0.28833333333333333
aF0.28833333333333333
aF0.28666666666666668
aF0.28999999999999998
aF0.29166666666666669
aF0.28833333333333333
aF0.28666666666666668
aF0.28166666666666668
aF0.28833333333333333
aF0.28333333333333333
aF0.28499999999999998
aF0.28333333333333333
aF0.28166666666666668
aF0.28666666666666668
aF0.28499999999999998
aF0.28166666666666668
aF0.28166666666666668
aF0.27500000000000002
aF0.27666666666666667
aF0.27000000000000002
aF0.27000000000000002
aF0.26500000000000001
aF0.25833333333333336
aF0.26500000000000001
aF0.27166666666666667
aF0.26666666666666666
aF0.26833333333333331
aF0.26500000000000001
aF0.26333333333333331
aF0.26333333333333331
aF0.26500000000000001
aF0.26666666666666666
aF0.26666666666666666
aF0.26500000000000001
aF0.26666666666666666
aF0.26833333333333331
aF0.26833333333333331
aF0.26666666666666666
aF0.26666666666666666
aF0.27000000000000002
aF0.26666666666666666
aF0.26666666666666666
aF0.27166666666666667
aF0.27000000000000002
aF0.26666666666666666
aF0.27166666666666667
aF0.27666666666666667
aF0.28333333333333333
aF0.28000000000000003
aF0.27333333333333332
aF0.28166666666666668
aF0.28666666666666668
aF0.28499999999999998
aF0.28166666666666668
aF0.28666666666666668
aF0.28833333333333333
aF0.28499999999999998
aF0.28499999999999998
aF0.28666666666666668
aF0.28333333333333333
aF0.27833333333333332
aF0.27666666666666667
aF0.27000000000000002
aF0.27166666666666667
aF0.26833333333333331
aF0.26833333333333331
aF0.26833333333333331
aF0.26833333333333331
aF0.26666666666666666
aF0.26000000000000001
aF0.25833333333333336
aF0.26500000000000001
aF0.27166666666666667
aF0.27166666666666667
aF0.27333333333333332
aF0.27500000000000002
aF0.27666666666666667
aF0.27500000000000002
aF0.27666666666666667
aF0.27500000000000002
aF0.27166666666666667
aF0.26833333333333331
aF0.26833333333333331
aF0.27333333333333332
aF0.27833333333333332
aF0.27666666666666667
aF0.28333333333333333
aF0.27666666666666667
aF0.27166666666666667
aF0.28000000000000003
aF0.27166666666666667
aF0.27166666666666667
aF0.27333333333333332
aF0.27166666666666667
aF0.27000000000000002
aF0.27166666666666667
aF0.26000000000000001
aF0.26833333333333331
aF0.255
aF0.24666666666666667
aF0.24166666666666667
aF0.23999999999999999
aF0.23499999999999999
aF0.23000000000000001
aF0.23000000000000001
aF0.22833333333333333
aF0.21833333333333332
aF0.21166666666666667
aF0.20499999999999999
aF0.20333333333333334
aF0.19833333333333333
aF0.20000000000000001
aF0.19833333333333333
aF0.19666666666666666
aF0.19333333333333333
aF0.19500000000000001
aF0.19666666666666666
aF0.18833333333333332
aF0.17999999999999999
aF0.18666666666666668
aF0.17499999999999999
aF0.17999999999999999
aF0.18666666666666668
aF0.20000000000000001
aF0.17999999999999999
aF0.19166666666666668
aF0.19333333333333333
aF0.19666666666666666
aF0.19500000000000001
aF0.215
aF0.215
aF0.19333333333333333
aF0.17000000000000001
aF0.16666666666666666
asS'testing'
p4
(lp5
F0.53333333333333333
aF0.5
aF0.6166666666666667
aF0.53333333333333333
aF0.56666666666666665
aF0.55000000000000004
aF0.53333333333333333
aF0.48333333333333334
aF0.51666666666666672
aF0.46666666666666667
aF0.51666666666666672
aF0.5
aF0.53333333333333333
aF0.56666666666666665
aF0.55000000000000004
aF0.53333333333333333
aF0.56666666666666665
aF0.56666666666666665
aF0.53333333333333333
aF0.59999999999999998
aF0.56666666666666665
aF0.55000000000000004
aF0.56666666666666665
aF0.56666666666666665
aF0.6166666666666667
aF0.6333333333333333
aF0.6333333333333333
aF0.59999999999999998
aF0.59999999999999998
aF0.58333333333333337
aF0.56666666666666665
aF0.56666666666666665
aF0.56666666666666665
aF0.56666666666666665
aF0.56666666666666665
aF0.56666666666666665
aF0.56666666666666665
aF0.56666666666666665
aF0.55000000000000004
aF0.55000000000000004
aF0.53333333333333333
aF0.51666666666666672
aF0.51666666666666672
aF0.53333333333333333
aF0.5
aF0.5
aF0.48333333333333334
aF0.48333333333333334
aF0.5
aF0.48333333333333334
aF0.45000000000000001
aF0.46666666666666667
aF0.45000000000000001
aF0.46666666666666667
aF0.45000000000000001
aF0.45000000000000001
aF0.45000000000000001
aF0.45000000000000001
aF0.43333333333333335
aF0.46666666666666667
aF0.48333333333333334
aF0.48333333333333334
aF0.5
aF0.46666666666666667
aF0.48333333333333334
aF0.48333333333333334
aF0.46666666666666667
aF0.45000000000000001
aF0.43333333333333335
aF0.43333333333333335
aF0.43333333333333335
aF0.45000000000000001
aF0.43333333333333335
aF0.45000000000000001
aF0.43333333333333335
aF0.45000000000000001
aF0.41666666666666669
aF0.45000000000000001
aF0.43333333333333335
aF0.46666666666666667
aF0.46666666666666667
aF0.46666666666666667
aF0.45000000000000001
aF0.43333333333333335
aF0.46666666666666667
aF0.46666666666666667
aF0.45000000000000001
aF0.45000000000000001
aF0.43333333333333335
aF0.45000000000000001
aF0.43333333333333335
aF0.41666666666666669
aF0.41666666666666669
aF0.41666666666666669
aF0.41666666666666669
aF0.38333333333333336
aF0.40000000000000002
aF0.38333333333333336
aF0.36666666666666664
aF0.40000000000000002
aF0.40000000000000002
aF0.41666666666666669
aF0.41666666666666669
aF0.41666666666666669
aF0.41666666666666669
aF0.41666666666666669
aF0.41666666666666669
aF0.41666666666666669
aF0.41666666666666669
aF0.41666666666666669
aF0.36666666666666664
aF0.36666666666666664
aF0.38333333333333336
aF0.38333333333333336
aF0.38333333333333336
aF0.38333333333333336
aF0.36666666666666664
aF0.34999999999999998
aF0.33333333333333331
aF0.34999999999999998
aF0.36666666666666664
aF0.34999999999999998
aF0.34999999999999998
aF0.34999999999999998
aF0.34999999999999998
aF0.34999999999999998
aF0.34999999999999998
aF0.34999999999999998
aF0.33333333333333331
aF0.33333333333333331
aF0.34999999999999998
aF0.34999999999999998
aF0.34999999999999998
aF0.34999999999999998
aF0.36666666666666664
aF0.36666666666666664
aF0.36666666666666664
aF0.36666666666666664
aF0.36666666666666664
aF0.34999999999999998
aF0.34999999999999998
aF0.34999999999999998
aF0.34999999999999998
aF0.33333333333333331
aF0.33333333333333331
aF0.33333333333333331
aF0.33333333333333331
aF0.33333333333333331
aF0.33333333333333331
aF0.33333333333333331
aF0.33333333333333331
aF0.33333333333333331
aF0.33333333333333331
aF0.34999999999999998
aF0.34999999999999998
aF0.33333333333333331
aF0.33333333333333331
aF0.33333333333333331
aF0.33333333333333331
aF0.33333333333333331
aF0.33333333333333331
aF0.33333333333333331
aF0.33333333333333331
aF0.31666666666666665
aF0.31666666666666665
aF0.31666666666666665
aF0.31666666666666665
aF0.31666666666666665
aF0.31666666666666665
aF0.33333333333333331
aF0.33333333333333331
aF0.33333333333333331
aF0.33333333333333331
aF0.33333333333333331
aF0.31666666666666665
aF0.33333333333333331
aF0.31666666666666665
aF0.31666666666666665
aF0.33333333333333331
aF0.33333333333333331
aF0.31666666666666665
aF0.31666666666666665
aF0.31666666666666665
aF0.29999999999999999
aF0.29999999999999999
aF0.29999999999999999
aF0.29999999999999999
aF0.29999999999999999
aF0.29999999999999999
aF0.29999999999999999
aF0.29999999999999999
aF0.29999999999999999
aF0.29999999999999999
aF0.29999999999999999
aF0.29999999999999999
aF0.29999999999999999
aF0.29999999999999999
aF0.29999999999999999
aF0.28333333333333333
aF0.28333333333333333
aF0.28333333333333333
aF0.28333333333333333
aF0.29999999999999999
aF0.31666666666666665
aF0.29999999999999999
aF0.31666666666666665
aF0.28333333333333333
aF0.29999999999999999
aF0.28333333333333333
aF0.28333333333333333
aF0.28333333333333333
aF0.28333333333333333
aF0.28333333333333333
aF0.28333333333333333
aF0.28333333333333333
aF0.28333333333333333
aF0.28333333333333333
aF0.28333333333333333
aF0.26666666666666666
aF0.29999999999999999
aF0.28333333333333333
aF0.29999999999999999
aF0.29999999999999999
aF0.29999999999999999
aF0.28333333333333333
aF0.28333333333333333
aF0.28333333333333333
aF0.28333333333333333
aF0.28333333333333333
aF0.28333333333333333
aF0.28333333333333333
aF0.28333333333333333
aF0.29999999999999999
aF0.29999999999999999
aF0.28333333333333333
aF0.28333333333333333
aF0.26666666666666666
aF0.26666666666666666
aF0.26666666666666666
aF0.26666666666666666
aF0.26666666666666666
aF0.26666666666666666
aF0.26666666666666666
aF0.28333333333333333
aF0.28333333333333333
aF0.28333333333333333
aF0.25
aF0.26666666666666666
aF0.26666666666666666
aF0.25
aF0.25
aF0.25
aF0.25
aF0.26666666666666666
aF0.26666666666666666
aF0.26666666666666666
aF0.26666666666666666
aF0.26666666666666666
aF0.26666666666666666
aF0.26666666666666666
aF0.26666666666666666
aF0.26666666666666666
aF0.26666666666666666
aF0.26666666666666666
aF0.28333333333333333
aF0.26666666666666666
aF0.26666666666666666
aF0.28333333333333333
aF0.26666666666666666
aF0.28333333333333333
aF0.28333333333333333
aF0.29999999999999999
aF0.29999999999999999
aF0.29999999999999999
aF0.29999999999999999
aF0.29999999999999999
aF0.29999999999999999
aF0.29999999999999999
aF0.28333333333333333
aF0.26666666666666666
aF0.28333333333333333
aF0.29999999999999999
aF0.29999999999999999
aF0.28333333333333333
aF0.28333333333333333
aF0.29999999999999999
aF0.29999999999999999
aF0.29999999999999999
aF0.29999999999999999
aF0.28333333333333333
aF0.28333333333333333
aF0.28333333333333333
aF0.26666666666666666
aF0.26666666666666666
aF0.25
aF0.25
aF0.25
aF0.25
aF0.25
aF0.25
aF0.25
aF0.25
aF0.26666666666666666
aF0.26666666666666666
aF0.28333333333333333
aF0.28333333333333333
aF0.26666666666666666
aF0.26666666666666666
aF0.26666666666666666
aF0.26666666666666666
aF0.26666666666666666
aF0.26666666666666666
aF0.26666666666666666
aF0.26666666666666666
aF0.26666666666666666
aF0.25
aF0.23333333333333334
aF0.25
aF0.25
aF0.25
aF0.23333333333333334
aF0.25
aF0.26666666666666666
aF0.26666666666666666
aF0.25
aF0.26666666666666666
aF0.26666666666666666
aF0.26666666666666666
aF0.26666666666666666
aF0.28333333333333333
aF0.28333333333333333
aF0.28333333333333333
aF0.26666666666666666
aF0.26666666666666666
aF0.26666666666666666
aF0.26666666666666666
aF0.26666666666666666
aF0.26666666666666666
aF0.25
aF0.23333333333333334
aF0.26666666666666666
aF0.26666666666666666
aF0.26666666666666666
aF0.26666666666666666
aF0.26666666666666666
aF0.26666666666666666
aF0.26666666666666666
aF0.25
aF0.25
aF0.25
aF0.25
aF0.25
aF0.25
aF0.26666666666666666
aF0.26666666666666666
aF0.28333333333333333
aF0.28333333333333333
aF0.28333333333333333
aF0.28333333333333333
aF0.28333333333333333
aF0.28333333333333333
aF0.28333333333333333
aF0.29999999999999999
aF0.29999999999999999
aF0.28333333333333333
aF0.29999999999999999
aF0.29999999999999999
aF0.29999999999999999
aF0.31666666666666665
aF0.29999999999999999
aF0.31666666666666665
aF0.29999999999999999
aF0.28333333333333333
aF0.28333333333333333
aF0.28333333333333333
aF0.28333333333333333
aF0.28333333333333333
aF0.28333333333333333
aF0.28333333333333333
aF0.28333333333333333
aF0.28333333333333333
aF0.28333333333333333
aF0.29999999999999999
aF0.29999999999999999
aF0.28333333333333333
aF0.28333333333333333
aF0.28333333333333333
aF0.28333333333333333
aF0.28333333333333333
aF0.28333333333333333
aF0.28333333333333333
aF0.28333333333333333
aF0.28333333333333333
aF0.28333333333333333
aF0.28333333333333333
aF0.28333333333333333
aF0.28333333333333333
aF0.28333333333333333
aF0.28333333333333333
aF0.28333333333333333
aF0.26666666666666666
aF0.26666666666666666
aF0.28333333333333333
aF0.28333333333333333
aF0.28333333333333333
aF0.26666666666666666
aF0.26666666666666666
aF0.28333333333333333
aF0.28333333333333333
aF0.28333333333333333
aF0.26666666666666666
aF0.26666666666666666
aF0.26666666666666666
aF0.25
aF0.25
aF0.25
aF0.25
aF0.26666666666666666
aF0.25
aF0.25
aF0.25
aF0.25
aF0.23333333333333334
aF0.23333333333333334
aF0.25
aF0.25
aF0.26666666666666666
aF0.25
aF0.23333333333333334
aF0.23333333333333334
aF0.25
aF0.25
aF0.23333333333333334
aF0.25
aF0.25
aF0.23333333333333334
aF0.23333333333333334
aF0.23333333333333334
aF0.23333333333333334
aF0.25
aF0.23333333333333334
aF0.26666666666666666
aF0.26666666666666666
aF0.26666666666666666
aF0.25
aF0.26666666666666666
aF0.26666666666666666
aF0.25
aF0.25
aF0.25
aF0.23333333333333334
aF0.25
aF0.25
aF0.25
aF0.25
aF0.25
aF0.25
aF0.25
aF0.25
aF0.26666666666666666
aF0.28333333333333333
aF0.29999999999999999
aF0.26666666666666666
aF0.28333333333333333
aF0.28333333333333333
aF0.28333333333333333
aF0.28333333333333333
aF0.29999999999999999
aF0.28333333333333333
aF0.28333333333333333
aF0.28333333333333333
aF0.31666666666666665
aF0.31666666666666665
aF0.31666666666666665
aF0.29999999999999999
aF0.29999999999999999
aF0.29999999999999999
aF0.28333333333333333
aF0.28333333333333333
aF0.26666666666666666
aF0.25
aF0.25
aF0.26666666666666666
aF0.28333333333333333
aF0.31666666666666665
aF0.31666666666666665
aF0.31666666666666665
aF0.28333333333333333
aF0.28333333333333333
aF0.28333333333333333
aF0.29999999999999999
aF0.29999999999999999
aF0.29999999999999999
aF0.28333333333333333
aF0.26666666666666666
aF0.26666666666666666
aF0.26666666666666666
aF0.26666666666666666
aF0.26666666666666666
aF0.26666666666666666
aF0.28333333333333333
aF0.25
aF0.28333333333333333
aF0.28333333333333333
aF0.28333333333333333
aF0.26666666666666666
aF0.26666666666666666
aF0.26666666666666666
aF0.26666666666666666
aF0.26666666666666666
aF0.26666666666666666
aF0.26666666666666666
aF0.26666666666666666
aF0.26666666666666666
aF0.25
aF0.25
aF0.25
aF0.25
aF0.25
aF0.26666666666666666
aF0.26666666666666666
aF0.23333333333333334
aF0.26666666666666666
aF0.26666666666666666
aF0.25
aF0.25
aF0.25
aF0.26666666666666666
aF0.25
aF0.25
aF0.25
aF0.25
aF0.25
aF0.25
aF0.26666666666666666
aF0.26666666666666666
aF0.26666666666666666
aF0.26666666666666666
aF0.26666666666666666
aF0.26666666666666666
aF0.23333333333333334
aF0.23333333333333334
aF0.23333333333333334
aF0.26666666666666666
aF0.26666666666666666
aF0.28333333333333333
aF0.26666666666666666
aF0.26666666666666666
aF0.26666666666666666
aF0.26666666666666666
aF0.28333333333333333
aF0.29999999999999999
aF0.31666666666666665
aF0.29999999999999999
aF0.28333333333333333
aF0.29999999999999999
aF0.26666666666666666
aF0.28333333333333333
aF0.28333333333333333
aF0.26666666666666666
aF0.28333333333333333
aF0.29999999999999999
aF0.28333333333333333
aF0.28333333333333333
aF0.28333333333333333
aF0.28333333333333333
aF0.26666666666666666
aF0.26666666666666666
aF0.25
aF0.25
aF0.26666666666666666
aF0.28333333333333333
aF0.26666666666666666
aF0.26666666666666666
aF0.25
aF0.23333333333333334
aF0.23333333333333334
aF0.25
aF0.23333333333333334
aF0.21666666666666667
aF0.21666666666666667
aF0.25
aF0.21666666666666667
aF0.18333333333333332
aF0.20000000000000001
aF0.20000000000000001
aF0.25
aF0.23333333333333334
aF0.21666666666666667
aF0.23333333333333334
aF0.25
aF0.21666666666666667
aF0.16666666666666666
aF0.18333333333333332
aF0.13333333333333333
aF0.16666666666666666
aF0.20000000000000001
aF0.14999999999999999
aF0.13333333333333333
aF0.16666666666666666
asS'validation'
p6
(lp7
F0.73333333333333328
aF0.6333333333333333
aF0.55000000000000004
aF0.59999999999999998
aF0.65000000000000002
aF0.6166666666666667
aF0.6166666666666667
aF0.6333333333333333
aF0.6333333333333333
aF0.6333333333333333
aF0.58333333333333337
aF0.58333333333333337
aF0.58333333333333337
aF0.58333333333333337
aF0.6166666666666667
aF0.58333333333333337
aF0.58333333333333337
aF0.58333333333333337
aF0.58333333333333337
aF0.58333333333333337
aF0.56666666666666665
aF0.58333333333333337
aF0.55000000000000004
aF0.55000000000000004
aF0.56666666666666665
aF0.56666666666666665
aF0.58333333333333337
aF0.55000000000000004
aF0.55000000000000004
aF0.55000000000000004
aF0.53333333333333333
aF0.5
aF0.5
aF0.48333333333333334
aF0.55000000000000004
aF0.53333333333333333
aF0.53333333333333333
aF0.56666666666666665
aF0.55000000000000004
aF0.55000000000000004
aF0.51666666666666672
aF0.51666666666666672
aF0.51666666666666672
aF0.51666666666666672
aF0.51666666666666672
aF0.51666666666666672
aF0.5
aF0.5
aF0.5
aF0.51666666666666672
aF0.5
aF0.5
aF0.5
aF0.48333333333333334
aF0.48333333333333334
aF0.48333333333333334
aF0.5
aF0.48333333333333334
aF0.46666666666666667
aF0.5
aF0.5
aF0.48333333333333334
aF0.48333333333333334
aF0.5
aF0.48333333333333334
aF0.5
aF0.5
aF0.5
aF0.5
aF0.5
aF0.51666666666666672
aF0.5
aF0.48333333333333334
aF0.46666666666666667
aF0.46666666666666667
aF0.5
aF0.51666666666666672
aF0.5
aF0.48333333333333334
aF0.48333333333333334
aF0.48333333333333334
aF0.48333333333333334
aF0.48333333333333334
aF0.48333333333333334
aF0.48333333333333334
aF0.48333333333333334
aF0.46666666666666667
aF0.51666666666666672
aF0.51666666666666672
aF0.51666666666666672
aF0.5
aF0.5
aF0.5
aF0.5
aF0.5
aF0.48333333333333334
aF0.48333333333333334
aF0.48333333333333334
aF0.46666666666666667
aF0.48333333333333334
aF0.46666666666666667
aF0.46666666666666667
aF0.48333333333333334
aF0.48333333333333334
aF0.46666666666666667
aF0.46666666666666667
aF0.46666666666666667
aF0.45000000000000001
aF0.46666666666666667
aF0.45000000000000001
aF0.43333333333333335
aF0.46666666666666667
aF0.45000000000000001
aF0.41666666666666669
aF0.41666666666666669
aF0.40000000000000002
aF0.41666666666666669
aF0.43333333333333335
aF0.41666666666666669
aF0.40000000000000002
aF0.38333333333333336
aF0.36666666666666664
aF0.36666666666666664
aF0.38333333333333336
aF0.38333333333333336
aF0.40000000000000002
aF0.38333333333333336
aF0.38333333333333336
aF0.41666666666666669
aF0.41666666666666669
aF0.38333333333333336
aF0.38333333333333336
aF0.38333333333333336
aF0.38333333333333336
aF0.38333333333333336
aF0.38333333333333336
aF0.38333333333333336
aF0.38333333333333336
aF0.40000000000000002
aF0.38333333333333336
aF0.38333333333333336
aF0.40000000000000002
aF0.40000000000000002
aF0.40000000000000002
aF0.40000000000000002
aF0.40000000000000002
aF0.40000000000000002
aF0.36666666666666664
aF0.36666666666666664
aF0.36666666666666664
aF0.36666666666666664
aF0.36666666666666664
aF0.36666666666666664
aF0.36666666666666664
aF0.36666666666666664
aF0.36666666666666664
aF0.36666666666666664
aF0.36666666666666664
aF0.38333333333333336
aF0.38333333333333336
aF0.38333333333333336
aF0.38333333333333336
aF0.38333333333333336
aF0.38333333333333336
aF0.38333333333333336
aF0.38333333333333336
aF0.38333333333333336
aF0.36666666666666664
aF0.36666666666666664
aF0.36666666666666664
aF0.38333333333333336
aF0.40000000000000002
aF0.36666666666666664
aF0.36666666666666664
aF0.36666666666666664
aF0.40000000000000002
aF0.38333333333333336
aF0.40000000000000002
aF0.40000000000000002
aF0.36666666666666664
aF0.36666666666666664
aF0.36666666666666664
aF0.34999999999999998
aF0.36666666666666664
aF0.36666666666666664
aF0.34999999999999998
aF0.33333333333333331
aF0.33333333333333331
aF0.33333333333333331
aF0.33333333333333331
aF0.34999999999999998
aF0.34999999999999998
aF0.36666666666666664
aF0.36666666666666664
aF0.36666666666666664
aF0.36666666666666664
aF0.36666666666666664
aF0.36666666666666664
aF0.36666666666666664
aF0.40000000000000002
aF0.38333333333333336
aF0.38333333333333336
aF0.38333333333333336
aF0.40000000000000002
aF0.40000000000000002
aF0.36666666666666664
aF0.36666666666666664
aF0.36666666666666664
aF0.36666666666666664
aF0.36666666666666664
aF0.36666666666666664
aF0.36666666666666664
aF0.36666666666666664
aF0.36666666666666664
aF0.36666666666666664
aF0.36666666666666664
aF0.33333333333333331
aF0.34999999999999998
aF0.38333333333333336
aF0.38333333333333336
aF0.38333333333333336
aF0.38333333333333336
aF0.38333333333333336
aF0.36666666666666664
aF0.36666666666666664
aF0.34999999999999998
aF0.34999999999999998
aF0.34999999999999998
aF0.34999999999999998
aF0.34999999999999998
aF0.33333333333333331
aF0.33333333333333331
aF0.34999999999999998
aF0.33333333333333331
aF0.34999999999999998
aF0.36666666666666664
aF0.34999999999999998
aF0.36666666666666664
aF0.40000000000000002
aF0.36666666666666664
aF0.33333333333333331
aF0.33333333333333331
aF0.33333333333333331
aF0.34999999999999998
aF0.33333333333333331
aF0.31666666666666665
aF0.29999999999999999
aF0.29999999999999999
aF0.29999999999999999
aF0.29999999999999999
aF0.29999999999999999
aF0.29999999999999999
aF0.29999999999999999
aF0.31666666666666665
aF0.29999999999999999
aF0.31666666666666665
aF0.33333333333333331
aF0.33333333333333331
aF0.33333333333333331
aF0.31666666666666665
aF0.31666666666666665
aF0.31666666666666665
aF0.33333333333333331
aF0.33333333333333331
aF0.33333333333333331
aF0.33333333333333331
aF0.34999999999999998
aF0.31666666666666665
aF0.33333333333333331
aF0.33333333333333331
aF0.33333333333333331
aF0.31666666666666665
aF0.33333333333333331
aF0.34999999999999998
aF0.34999999999999998
aF0.34999999999999998
aF0.33333333333333331
aF0.33333333333333331
aF0.33333333333333331
aF0.34999999999999998
aF0.33333333333333331
aF0.33333333333333331
aF0.31666666666666665
aF0.31666666666666665
aF0.31666666666666665
aF0.33333333333333331
aF0.33333333333333331
aF0.33333333333333331
aF0.33333333333333331
aF0.34999999999999998
aF0.34999999999999998
aF0.34999999999999998
aF0.33333333333333331
aF0.33333333333333331
aF0.33333333333333331
aF0.33333333333333331
aF0.33333333333333331
aF0.33333333333333331
aF0.31666666666666665
aF0.29999999999999999
aF0.29999999999999999
aF0.29999999999999999
aF0.29999999999999999
aF0.29999999999999999
aF0.31666666666666665
aF0.31666666666666665
aF0.31666666666666665
aF0.31666666666666665
aF0.31666666666666665
aF0.29999999999999999
aF0.29999999999999999
aF0.29999999999999999
aF0.29999999999999999
aF0.31666666666666665
aF0.33333333333333331
aF0.29999999999999999
aF0.28333333333333333
aF0.28333333333333333
aF0.28333333333333333
aF0.28333333333333333
aF0.29999999999999999
aF0.31666666666666665
aF0.31666666666666665
aF0.31666666666666665
aF0.31666666666666665
aF0.31666666666666665
aF0.33333333333333331
aF0.34999999999999998
aF0.36666666666666664
aF0.36666666666666664
aF0.36666666666666664
aF0.34999999999999998
aF0.33333333333333331
aF0.31666666666666665
aF0.33333333333333331
aF0.31666666666666665
aF0.31666666666666665
aF0.31666666666666665
aF0.31666666666666665
aF0.31666666666666665
aF0.31666666666666665
aF0.31666666666666665
aF0.33333333333333331
aF0.29999999999999999
aF0.29999999999999999
aF0.29999999999999999
aF0.29999999999999999
aF0.28333333333333333
aF0.28333333333333333
aF0.26666666666666666
aF0.28333333333333333
aF0.28333333333333333
aF0.28333333333333333
aF0.28333333333333333
aF0.29999999999999999
aF0.29999999999999999
aF0.28333333333333333
aF0.28333333333333333
aF0.28333333333333333
aF0.28333333333333333
aF0.28333333333333333
aF0.26666666666666666
aF0.28333333333333333
aF0.28333333333333333
aF0.28333333333333333
aF0.28333333333333333
aF0.28333333333333333
aF0.29999999999999999
aF0.28333333333333333
aF0.28333333333333333
aF0.29999999999999999
aF0.29999999999999999
aF0.29999999999999999
aF0.28333333333333333
aF0.28333333333333333
aF0.26666666666666666
aF0.28333333333333333
aF0.28333333333333333
aF0.28333333333333333
aF0.31666666666666665
aF0.31666666666666665
aF0.31666666666666665
aF0.31666666666666665
aF0.28333333333333333
aF0.29999999999999999
aF0.29999999999999999
aF0.29999999999999999
aF0.29999999999999999
aF0.29999999999999999
aF0.29999999999999999
aF0.28333333333333333
aF0.28333333333333333
aF0.28333333333333333
aF0.28333333333333333
aF0.26666666666666666
aF0.28333333333333333
aF0.28333333333333333
aF0.25
aF0.25
aF0.25
aF0.26666666666666666
aF0.25
aF0.25
aF0.25
aF0.25
aF0.23333333333333334
aF0.23333333333333334
aF0.23333333333333334
aF0.23333333333333334
aF0.23333333333333334
aF0.23333333333333334
aF0.23333333333333334
aF0.23333333333333334
aF0.23333333333333334
aF0.23333333333333334
aF0.23333333333333334
aF0.23333333333333334
aF0.23333333333333334
aF0.23333333333333334
aF0.23333333333333334
aF0.23333333333333334
aF0.26666666666666666
aF0.25
aF0.25
aF0.25
aF0.26666666666666666
aF0.26666666666666666
aF0.26666666666666666
aF0.26666666666666666
aF0.26666666666666666
aF0.26666666666666666
aF0.25
aF0.25
aF0.25
aF0.26666666666666666
aF0.23333333333333334
aF0.23333333333333334
aF0.25
aF0.25
aF0.25
aF0.25
aF0.23333333333333334
aF0.25
aF0.25
aF0.26666666666666666
aF0.23333333333333334
aF0.23333333333333334
aF0.21666666666666667
aF0.21666666666666667
aF0.23333333333333334
aF0.21666666666666667
aF0.20000000000000001
aF0.21666666666666667
aF0.20000000000000001
aF0.21666666666666667
aF0.21666666666666667
aF0.21666666666666667
aF0.21666666666666667
aF0.21666666666666667
aF0.21666666666666667
aF0.21666666666666667
aF0.21666666666666667
aF0.21666666666666667
aF0.23333333333333334
aF0.23333333333333334
aF0.25
aF0.26666666666666666
aF0.26666666666666666
aF0.26666666666666666
aF0.26666666666666666
aF0.25
aF0.25
aF0.25
aF0.23333333333333334
aF0.23333333333333334
aF0.25
aF0.25
aF0.25
aF0.26666666666666666
aF0.26666666666666666
aF0.26666666666666666
aF0.26666666666666666
aF0.26666666666666666
aF0.25
aF0.26666666666666666
aF0.26666666666666666
aF0.29999999999999999
aF0.26666666666666666
aF0.28333333333333333
aF0.25
aF0.23333333333333334
aF0.21666666666666667
aF0.21666666666666667
aF0.21666666666666667
aF0.23333333333333334
aF0.23333333333333334
aF0.23333333333333334
aF0.25
aF0.25
aF0.26666666666666666
aF0.26666666666666666
aF0.25
aF0.25
aF0.25
aF0.26666666666666666
aF0.26666666666666666
aF0.26666666666666666
aF0.26666666666666666
aF0.25
aF0.25
aF0.23333333333333334
aF0.23333333333333334
aF0.21666666666666667
aF0.20000000000000001
aF0.20000000000000001
aF0.20000000000000001
aF0.20000000000000001
aF0.20000000000000001
aF0.21666666666666667
aF0.25
aF0.23333333333333334
aF0.23333333333333334
aF0.23333333333333334
aF0.25
aF0.25
aF0.25
aF0.23333333333333334
aF0.23333333333333334
aF0.23333333333333334
aF0.23333333333333334
aF0.25
aF0.23333333333333334
aF0.23333333333333334
aF0.21666666666666667
aF0.23333333333333334
aF0.25
aF0.25
aF0.25
aF0.25
aF0.25
aF0.25
aF0.26666666666666666
aF0.26666666666666666
aF0.25
aF0.23333333333333334
aF0.23333333333333334
aF0.23333333333333334
aF0.18333333333333332
aF0.18333333333333332
aF0.20000000000000001
aF0.20000000000000001
aF0.20000000000000001
aF0.20000000000000001
aF0.21666666666666667
aF0.21666666666666667
aF0.21666666666666667
aF0.20000000000000001
aF0.21666666666666667
aF0.21666666666666667
aF0.21666666666666667
aF0.21666666666666667
aF0.21666666666666667
aF0.18333333333333332
aF0.18333333333333332
aF0.21666666666666667
aF0.20000000000000001
aF0.20000000000000001
aF0.20000000000000001
aF0.21666666666666667
aF0.18333333333333332
aF0.18333333333333332
aF0.18333333333333332
aF0.14999999999999999
aF0.16666666666666666
aF0.13333333333333333
aF0.13333333333333333
aF0.16666666666666666
aF0.20000000000000001
aF0.18333333333333332
aF0.20000000000000001
aF0.18333333333333332
aF0.16666666666666666
aF0.18333333333333332
aF0.21666666666666667
aF0.20000000000000001
aF0.21666666666666667
aF0.20000000000000001
aF0.23333333333333334
aF0.23333333333333334
aF0.21666666666666667
aF0.26666666666666666
aF0.21666666666666667
aF0.25
aF0.20000000000000001
aF0.16666666666666666
aF0.20000000000000001
aF0.18333333333333332
aF0.23333333333333334
aF0.18333333333333332
aF0.16666666666666666
as.